target datalayout = "e-m:e-p270:32:32-p271:32:32-p272:64:64-i64:64-i128:128-f80:128-n8:16:32:64-S128"
target triple = "x86_64-pc-linux-gnu"

%"struct.std::atomic" = type { %"struct.std::__atomic_base" }
%"struct.std::__atomic_base" = type { i64 }

@stderr = external global ptr, align 8
@_ZL7out_len = internal global %"struct.std::atomic" zeroinitializer, align 8
@_ZL7out_buf = internal global [16385 x i8] zeroinitializer, align 16

; Function Attrs: mustprogress nounwind uwtable
define linkonce_odr noundef i32 @_ZStanSt12memory_orderSt23__memory_order_modifier(i32 noundef %0, i32 noundef %1) #5 comdat {
  %3 = alloca i32, align 4
  %4 = alloca i32, align 4
  store i32 %0, ptr %3, align 4, !tbaa !32
  store i32 %1, ptr %4, align 4, !tbaa !428
  %5 = load i32, ptr %3, align 4, !tbaa !32
  %6 = load i32, ptr %4, align 4, !tbaa !428
  %7 = and i32 %5, %6
  ret i32 %7
}

; Function Attrs: alwaysinline mustprogress nounwind uwtable
define linkonce_odr hidden noundef i64 @_ZNSt13__atomic_baseImE9fetch_addEmSt12memory_order(ptr noundef nonnull align 8 dereferenceable(8) %0, i64 noundef %1, i32 noundef %2) #17 comdat align 2 {
  %4 = alloca ptr, align 8
  %5 = alloca i64, align 8
  %6 = alloca i32, align 4
  %7 = alloca i64, align 8
  %8 = alloca i64, align 8
  store ptr %0, ptr %4, align 8, !tbaa !164
  store i64 %1, ptr %5, align 8, !tbaa !18
  store i32 %2, ptr %6, align 4, !tbaa !32
  %9 = load ptr, ptr %4, align 8
  %10 = getelementptr inbounds nuw %"struct.std::__atomic_base", ptr %9, i32 0, i32 0
  %11 = load i32, ptr %6, align 4, !tbaa !32
  %12 = load i64, ptr %5, align 8, !tbaa !18
  store i64 %12, ptr %7, align 8, !tbaa !18
  switch i32 %11, label %13 [
    i32 1, label %16
    i32 2, label %16
    i32 3, label %19
    i32 4, label %22
    i32 5, label %25
  ]

13:                                               ; preds = %3
  %14 = load i64, ptr %7, align 8
  %15 = atomicrmw add ptr %10, i64 %14 monotonic, align 8
  store i64 %15, ptr %8, align 8
  br label %28

16:                                               ; preds = %3, %3
  %17 = load i64, ptr %7, align 8
  %18 = atomicrmw add ptr %10, i64 %17 acquire, align 8
  store i64 %18, ptr %8, align 8
  br label %28

19:                                               ; preds = %3
  %20 = load i64, ptr %7, align 8
  %21 = atomicrmw add ptr %10, i64 %20 release, align 8
  store i64 %21, ptr %8, align 8
  br label %28

22:                                               ; preds = %3
  %23 = load i64, ptr %7, align 8
  %24 = atomicrmw add ptr %10, i64 %23 acq_rel, align 8
  store i64 %24, ptr %8, align 8
  br label %28

25:                                               ; preds = %3
  %26 = load i64, ptr %7, align 8
  %27 = atomicrmw add ptr %10, i64 %26 seq_cst, align 8
  store i64 %27, ptr %8, align 8
  br label %28

28:                                               ; preds = %25, %22, %19, %16, %13
  %29 = load i64, ptr %8, align 8, !tbaa !18
  ret i64 %29
}

; Function Attrs: alwaysinline mustprogress nounwind uwtable
define linkonce_odr hidden noundef i64 @_ZNKSt13__atomic_baseImE4loadESt12memory_order(ptr noundef nonnull align 8 dereferenceable(8) %0, i32 noundef %1) #17 comdat align 2 {
  %3 = alloca ptr, align 8
  %4 = alloca i32, align 4
  %5 = alloca i32, align 4
  %6 = alloca i64, align 8
  store ptr %0, ptr %3, align 8, !tbaa !164
  store i32 %1, ptr %4, align 4, !tbaa !32
  %7 = load ptr, ptr %3, align 8
  call void @llvm.lifetime.start.p0(i64 4, ptr %5) #19
  %8 = load i32, ptr %4, align 4, !tbaa !32
  %9 = call noundef i32 @_ZStanSt12memory_orderSt23__memory_order_modifier(i32 noundef %8, i32 noundef 65535)
  store i32 %9, ptr %5, align 4, !tbaa !32
  br label %10

10:                                               ; preds = %2
  br label %11

11:                                               ; preds = %10
  br label %12

12:                                               ; preds = %11
  br label %13

13:                                               ; preds = %12
  br label %14

14:                                               ; preds = %13
  br label %15

15:                                               ; preds = %14
  %16 = getelementptr inbounds nuw %"struct.std::__atomic_base", ptr %7, i32 0, i32 0
  %17 = load i32, ptr %4, align 4, !tbaa !32
  switch i32 %17, label %18 [
    i32 1, label %20
    i32 2, label %20
    i32 5, label %22
  ]

18:                                               ; preds = %15
  %19 = load atomic i64, ptr %16 monotonic, align 8
  store i64 %19, ptr %6, align 8
  br label %24

20:                                               ; preds = %15, %15
  %21 = load atomic i64, ptr %16 acquire, align 8
  store i64 %21, ptr %6, align 8
  br label %24

22:                                               ; preds = %15
  %23 = load atomic i64, ptr %16 seq_cst, align 8
  store i64 %23, ptr %6, align 8
  br label %24

24:                                               ; preds = %22, %20, %18
  %25 = load i64, ptr %6, align 8, !tbaa !18
  call void @llvm.lifetime.end.p0(i64 4, ptr %5) #19
  ret i64 %25
}

; Function Attrs: inlinehint mustprogress nounwind uwtable
define internal void @_ZL10_mi_memcpyPvPKvm(ptr noundef %0, ptr noundef %1, i64 noundef %2) #3 {
  %4 = alloca ptr, align 8
  %5 = alloca ptr, align 8
  %6 = alloca i64, align 8
  store ptr %0, ptr %4, align 8, !tbaa !8
  store ptr %1, ptr %5, align 8, !tbaa !8
  store i64 %2, ptr %6, align 8, !tbaa !18
  %7 = load ptr, ptr %4, align 8, !tbaa !8
  %8 = load ptr, ptr %5, align 8, !tbaa !8
  %9 = load i64, ptr %6, align 8, !tbaa !18
  call void @llvm.memcpy.p0.p0.i64(ptr align 1 %7, ptr align 1 %8, i64 %9, i1 false)
  ret void
}

; Function Attrs: inlinehint mustprogress nounwind uwtable
define linkonce_odr noundef i64 @_ZSt25atomic_fetch_add_explicitImET_PSt6atomicIS0_ENS2_15difference_typeESt12memory_order(ptr noundef %0, i64 noundef %1, i32 noundef %2) #3 comdat {
  %4 = alloca ptr, align 8
  %5 = alloca i64, align 8
  %6 = alloca i32, align 4
  store ptr %0, ptr %4, align 8, !tbaa !30
  store i64 %1, ptr %5, align 8, !tbaa !18
  store i32 %2, ptr %6, align 4, !tbaa !32
  %7 = load ptr, ptr %4, align 8, !tbaa !30
  %8 = load i64, ptr %5, align 8, !tbaa !18
  %9 = load i32, ptr %6, align 4, !tbaa !32
  %10 = call noundef i64 @_ZNSt13__atomic_baseImE9fetch_addEmSt12memory_order(ptr noundef nonnull align 8 dereferenceable(8) %7, i64 noundef %8, i32 noundef %9) #19
  ret i64 %10
}

; Function Attrs: mustprogress nounwind uwtable
define hidden noundef i64 @_Z10_mi_strlenPKc(ptr noundef %0) #5 {
  %2 = alloca i64, align 8
  %3 = alloca ptr, align 8
  %4 = alloca i64, align 8
  store ptr %0, ptr %3, align 8, !tbaa !29
  %5 = load ptr, ptr %3, align 8, !tbaa !29
  %6 = icmp eq ptr %5, null
  br i1 %6, label %7, label %8

7:                                                ; preds = %1
  store i64 0, ptr %2, align 8
  br label %21

8:                                                ; preds = %1
  call void @llvm.lifetime.start.p0(i64 8, ptr %4) #19
  store i64 0, ptr %4, align 8, !tbaa !18
  br label %9

9:                                                ; preds = %16, %8
  %10 = load ptr, ptr %3, align 8, !tbaa !29
  %11 = load i64, ptr %4, align 8, !tbaa !18
  %12 = getelementptr inbounds nuw i8, ptr %10, i64 %11
  %13 = load i8, ptr %12, align 1, !tbaa !28
  %14 = sext i8 %13 to i32
  %15 = icmp ne i32 %14, 0
  br i1 %15, label %16, label %19

16:                                               ; preds = %9
  %17 = load i64, ptr %4, align 8, !tbaa !18
  %18 = add i64 %17, 1
  store i64 %18, ptr %4, align 8, !tbaa !18
  br label %9, !llvm.loop !48

19:                                               ; preds = %9
  %20 = load i64, ptr %4, align 8, !tbaa !18
  store i64 %20, ptr %2, align 8
  call void @llvm.lifetime.end.p0(i64 8, ptr %4) #19
  br label %21

21:                                               ; preds = %19, %7
  %22 = load i64, ptr %2, align 8
  ret i64 %22
}

; Function Attrs: inlinehint mustprogress nounwind uwtable
define linkonce_odr noundef i64 @_ZSt20atomic_load_explicitImET_PKSt6atomicIS0_ESt12memory_order(ptr noundef %0, i32 noundef %1) #3 comdat {
  %3 = alloca ptr, align 8
  %4 = alloca i32, align 4
  store ptr %0, ptr %3, align 8, !tbaa !30
  store i32 %1, ptr %4, align 4, !tbaa !32
  %5 = load ptr, ptr %3, align 8, !tbaa !30
  %6 = load i32, ptr %4, align 4, !tbaa !32
  %7 = call noundef i64 @_ZNKSt13__atomic_baseImE4loadESt12memory_order(ptr noundef nonnull align 8 dereferenceable(8) %5, i32 noundef %6) #19
  ret i64 %7
}

; Function Attrs: mustprogress uwtable
define hidden void @_Z19_mi_prim_out_stderrPKc(ptr noundef %0) #0 {
  %2 = alloca ptr, align 8
  store ptr %0, ptr %2, align 8, !tbaa !29
  %3 = load ptr, ptr %2, align 8, !tbaa !29
  %4 = load ptr, ptr @stderr, align 8, !tbaa !249
  %5 = call i32 @fputs(ptr noundef %3, ptr noundef %4)
  ret void
}

; Function Attrs: mustprogress nounwind uwtable
define internal void @_ZL10mi_out_bufPKcPv(ptr noundef %0, ptr noundef %1) #5 {
  %3 = alloca ptr, align 8
  %4 = alloca ptr, align 8
  %5 = alloca i64, align 8
  %6 = alloca i32, align 4
  %7 = alloca i64, align 8
  store ptr %0, ptr %3, align 8, !tbaa !29
  store ptr %1, ptr %4, align 8, !tbaa !8
  %8 = load ptr, ptr %3, align 8, !tbaa !29
  %9 = icmp eq ptr %8, null
  br i1 %9, label %10, label %11

10:                                               ; preds = %2
  br label %44

11:                                               ; preds = %2
  %12 = call noundef i64 @_ZSt20atomic_load_explicitImET_PKSt6atomicIS0_ESt12memory_order(ptr noundef @_ZL7out_len, i32 noundef 0) #19
  %13 = icmp uge i64 %12, 16384
  br i1 %13, label %14, label %15

14:                                               ; preds = %11
  br label %44

15:                                               ; preds = %11
  call void @llvm.lifetime.start.p0(i64 8, ptr %5) #19
  %16 = load ptr, ptr %3, align 8, !tbaa !29
  %17 = call noundef i64 @_Z10_mi_strlenPKc(ptr noundef %16)
  store i64 %17, ptr %5, align 8, !tbaa !18
  %18 = load i64, ptr %5, align 8, !tbaa !18
  %19 = icmp eq i64 %18, 0
  br i1 %19, label %20, label %21

20:                                               ; preds = %15
  store i32 1, ptr %6, align 4
  br label %42

21:                                               ; preds = %15
  call void @llvm.lifetime.start.p0(i64 8, ptr %7) #19
  %22 = load i64, ptr %5, align 8, !tbaa !18
  %23 = call noundef i64 @_ZSt25atomic_fetch_add_explicitImET_PSt6atomicIS0_ENS2_15difference_typeESt12memory_order(ptr noundef @_ZL7out_len, i64 noundef %22, i32 noundef 4) #19
  store i64 %23, ptr %7, align 8, !tbaa !18
  %24 = load i64, ptr %7, align 8, !tbaa !18
  %25 = icmp uge i64 %24, 16384
  br i1 %25, label %26, label %27

26:                                               ; preds = %21
  store i32 1, ptr %6, align 4
  br label %41

27:                                               ; preds = %21
  %28 = load i64, ptr %7, align 8, !tbaa !18
  %29 = load i64, ptr %5, align 8, !tbaa !18
  %30 = add i64 %28, %29
  %31 = icmp uge i64 %30, 16384
  br i1 %31, label %32, label %36

32:                                               ; preds = %27
  %33 = load i64, ptr %7, align 8, !tbaa !18
  %34 = sub i64 16384, %33
  %35 = sub i64 %34, 1
  store i64 %35, ptr %5, align 8, !tbaa !18
  br label %36

36:                                               ; preds = %32, %27
  %37 = load i64, ptr %7, align 8, !tbaa !18
  %38 = getelementptr inbounds nuw [16385 x i8], ptr @_ZL7out_buf, i64 0, i64 %37
  %39 = load ptr, ptr %3, align 8, !tbaa !29
  %40 = load i64, ptr %5, align 8, !tbaa !18
  call void @_ZL10_mi_memcpyPvPKvm(ptr noundef %38, ptr noundef %39, i64 noundef %40)
  store i32 0, ptr %6, align 4
  br label %41

41:                                               ; preds = %36, %26
  call void @llvm.lifetime.end.p0(i64 8, ptr %7) #19
  br label %42

42:                                               ; preds = %41, %20
  call void @llvm.lifetime.end.p0(i64 8, ptr %5) #19
  %43 = load i32, ptr %6, align 4
  switch i32 %43, label %45 [
    i32 0, label %44
    i32 1, label %44
  ]

44:                                               ; preds = %10, %14, %42, %42
  ret void

45:                                               ; preds = %42
  unreachable
}

; Function Attrs: mustprogress uwtable
define internal void @_ZL13mi_out_stderrPKcPv(ptr noundef %0, ptr noundef %1) #0 {
  %3 = alloca ptr, align 8
  %4 = alloca ptr, align 8
  store ptr %0, ptr %3, align 8, !tbaa !29
  store ptr %1, ptr %4, align 8, !tbaa !8
  %5 = load ptr, ptr %3, align 8, !tbaa !29
  %6 = icmp ne ptr %5, null
  br i1 %6, label %7, label %15

7:                                                ; preds = %2
  %8 = load ptr, ptr %3, align 8, !tbaa !29
  %9 = getelementptr inbounds i8, ptr %8, i64 0
  %10 = load i8, ptr %9, align 1, !tbaa !28
  %11 = sext i8 %10 to i32
  %12 = icmp ne i32 %11, 0
  br i1 %12, label %13, label %15

13:                                               ; preds = %7
  %14 = load ptr, ptr %3, align 8, !tbaa !29
  call void @_Z19_mi_prim_out_stderrPKc(ptr noundef %14)
  br label %15

15:                                               ; preds = %13, %7, %2
  ret void
}

; Function Attrs: mustprogress uwtable
define internal void @_ZL17mi_out_buf_stderrPKcPv(ptr noundef %0, ptr noundef %1) #0 {
  %3 = alloca ptr, align 8
  %4 = alloca ptr, align 8
  store ptr %0, ptr %3, align 8, !tbaa !29
  store ptr %1, ptr %4, align 8, !tbaa !8
  %5 = load ptr, ptr %3, align 8, !tbaa !29
  %6 = load ptr, ptr %4, align 8, !tbaa !8
  call void @_ZL13mi_out_stderrPKcPv(ptr noundef %5, ptr noundef %6)
  %7 = load ptr, ptr %3, align 8, !tbaa !29
  %8 = load ptr, ptr %4, align 8, !tbaa !8
  call void @_ZL10mi_out_bufPKcPv(ptr noundef %7, ptr noundef %8)
  ret void
}