; Function Attrs: mustprogress nofree nounwind uwtable
define internal void @_ZL17mi_out_buf_stderrPKcPv(ptr noundef readonly captures(address_is_null) %0, ptr readnone captures(none) %1) #38 {
  %.not.i = icmp eq ptr %0, null
  br i1 %.not.i, label %_ZL10mi_out_bufPKcPv.exit, label %3

3:                                                ; preds = %2
  %4 = load i8, ptr %0, align 1, !tbaa !25
  %.not3.i = icmp eq i8 %4, 0
  br i1 %.not3.i, label %8, label %5

5:                                                ; preds = %3
  %6 = load ptr, ptr @stderr, align 8, !tbaa !236
  %7 = tail call i32 @fputs(ptr noundef nonnull readonly %0, ptr noundef %6) #60
  br label %8

8:                                                ; preds = %3, %5
  %9 = load atomic i64, ptr @_ZL7out_len monotonic, align 8
  %10 = icmp ugt i64 %9, 16383
  br i1 %10, label %_ZL10mi_out_bufPKcPv.exit, label %_Z10_mi_strlenPKc.exit.i

_Z10_mi_strlenPKc.exit.i:                         ; preds = %8
  %strlen.i.i = tail call i64 @strlen(ptr noundef nonnull readonly dereferenceable(1) %0)
  %11 = icmp eq i64 %strlen.i.i, 0
  br i1 %11, label %_ZL10mi_out_bufPKcPv.exit, label %12

12:                                               ; preds = %_Z10_mi_strlenPKc.exit.i
  %13 = atomicrmw add ptr @_ZL7out_len, i64 %strlen.i.i acq_rel, align 8
  %14 = icmp ugt i64 %13, 16383
  br i1 %14, label %_ZL10mi_out_bufPKcPv.exit, label %15

15:                                               ; preds = %12
  %16 = add i64 %13, %strlen.i.i
  %17 = icmp ugt i64 %16, 16383
  %18 = sub nuw nsw i64 16383, %13
  %spec.select.i = select i1 %17, i64 %18, i64 %strlen.i.i
  %19 = getelementptr inbounds nuw [16385 x i8], ptr @_ZL7out_buf, i64 0, i64 %13
  tail call void @llvm.memcpy.p0.p0.i64(ptr nonnull align 1 %19, ptr nonnull readonly align 1 %0, i64 %spec.select.i, i1 false)
  br label %_ZL10mi_out_bufPKcPv.exit

_ZL10mi_out_bufPKcPv.exit:                        ; preds = %2, %8, %_Z10_mi_strlenPKc.exit.i, %12, %15
  ret void
}